; Function Attrs: mustprogress nofree nounwind willreturn uwtable
define noalias noundef ptr @av_strndup(ptr noundef %0, i64 noundef %1) local_unnamed_addr #10 {
  %.not = icmp eq ptr %0, null
  br i1 %.not, label %av_realloc.exit.thread, label %3

3:                                                ; preds = %2
  %4 = tail call ptr @memchr(ptr noundef nonnull %0, i32 noundef 0, i64 noundef %1) #23
  %.not18 = icmp eq ptr %4, null
  %5 = ptrtoint ptr %4 to i64
  %6 = ptrtoint ptr %0 to i64
  %7 = sub i64 %5, %6
  %.014 = select i1 %.not18, i64 %1, i64 %7
  %8 = add i64 %.014, 1
  %9 = load atomic i64, ptr @max_alloc_size monotonic, align 8
  %10 = icmp ugt i64 %8, %9
  br i1 %10, label %av_realloc.exit.thread, label %av_realloc.exit

av_realloc.exit:                                  ; preds = %3
  %11 = tail call i64 @llvm.umax.i64(i64 %8, i64 1)
  %malloc = tail call ptr @malloc(i64 %11)
  %.not19 = icmp eq ptr %malloc, null
  br i1 %.not19, label %av_realloc.exit.thread, label %12

12:                                               ; preds = %av_realloc.exit
  tail call void @llvm.memcpy.p0.p0.i64(ptr nonnull align 1 %malloc, ptr nonnull align 1 %0, i64 %.014, i1 false)
  %13 = getelementptr inbounds nuw i8, ptr %malloc, i64 %.014
  store i8 0, ptr %13, align 1, !tbaa !8
  br label %av_realloc.exit.thread

av_realloc.exit.thread:                           ; preds = %3, %av_realloc.exit, %2, %12
  %.0 = phi ptr [ %malloc, %12 ], [ null, %2 ], [ null, %av_realloc.exit ], [ null, %3 ]
  ret ptr %.0
}